target datalayout = "e-m:e-p270:32:32-p271:32:32-p272:64:64-i64:64-i128:128-f80:128-n8:16:32:64-S128"
target triple = "x86_64-pc-linux-gnu"

%struct.AVFilterContext = type { ptr, ptr, ptr, ptr, ptr, i32, ptr, ptr, i32, ptr, ptr, i32, i32, ptr, ptr, ptr, ptr, i32, ptr, i32, i32 }
%struct.PaletteGenContext = type { ptr, i32, i32, i32, ptr, [32768 x %struct.hist_node], ptr, i32, [256 x %struct.range_box], i32, i32, [4 x i8] }
%struct.hist_node = type { ptr, i32 }
%struct.range_box = type { i32, %struct.Lab, i32, i64, i64, i32, i32, i32 }
%struct.Lab = type { i32, i32, i32 }

; Function Attrs: cold nounwind optsize uwtable
define internal void @uninit(ptr noundef %0) #1 {
  %2 = alloca ptr, align 8
  %3 = alloca i32, align 4
  %4 = alloca ptr, align 8
  store ptr %0, ptr %2, align 8, !tbaa !4
  call void @llvm.lifetime.start.p0(i64 4, ptr %3) #10
  call void @llvm.lifetime.start.p0(i64 8, ptr %4) #10
  %5 = load ptr, ptr %2, align 8, !tbaa !4
  %6 = getelementptr inbounds nuw %struct.AVFilterContext, ptr %5, i32 0, i32 9
  %7 = load ptr, ptr %6, align 8, !tbaa !9
  store ptr %7, ptr %4, align 8, !tbaa !22
  store i32 0, ptr %3, align 4, !tbaa !29
  br label %8

8:                                                ; preds = %18, %1
  %9 = load i32, ptr %3, align 4, !tbaa !29
  %10 = icmp slt i32 %9, 32768
  br i1 %10, label %11, label %21

11:                                               ; preds = %8
  %12 = load ptr, ptr %4, align 8, !tbaa !22
  %13 = getelementptr inbounds nuw %struct.PaletteGenContext, ptr %12, i32 0, i32 5
  %14 = load i32, ptr %3, align 4, !tbaa !29
  %15 = sext i32 %14 to i64
  %16 = getelementptr inbounds [32768 x %struct.hist_node], ptr %13, i64 0, i64 %15
  %17 = getelementptr inbounds nuw %struct.hist_node, ptr %16, i32 0, i32 0
  call void @av_freep(ptr noundef %17)
  br label %18

18:                                               ; preds = %11
  %19 = load i32, ptr %3, align 4, !tbaa !29
  %20 = add nsw i32 %19, 1
  store i32 %20, ptr %3, align 4, !tbaa !29
  br label %8, !llvm.loop !30

21:                                               ; preds = %8
  %22 = load ptr, ptr %4, align 8, !tbaa !22
  %23 = getelementptr inbounds nuw %struct.PaletteGenContext, ptr %22, i32 0, i32 6
  call void @av_freep(ptr noundef %23)
  %24 = load ptr, ptr %4, align 8, !tbaa !22
  %25 = getelementptr inbounds nuw %struct.PaletteGenContext, ptr %24, i32 0, i32 4
  call void @av_frame_free(ptr noundef %25)
  call void @llvm.lifetime.end.p0(i64 8, ptr %4) #10
  call void @llvm.lifetime.end.p0(i64 4, ptr %3) #10
  ret void
}