; Function Attrs: cold nounwind optsize uwtable
define internal void @uninit(ptr noundef readonly captures(none) %0) #1 {
  %2 = getelementptr inbounds nuw i8, ptr %0, i64 72
  %3 = load ptr, ptr %2, align 8, !tbaa !4
  %4 = getelementptr inbounds nuw i8, ptr %3, i64 32
  br label %5

5:                                                ; preds = %1, %5
  %indvars.iv = phi i64 [ 0, %1 ], [ %indvars.iv.next, %5 ]
  %6 = getelementptr inbounds nuw [32768 x %struct.hist_node], ptr %4, i64 0, i64 %indvars.iv
  tail call void @av_freep(ptr noundef nonnull %6) #13
  %indvars.iv.next = add nuw nsw i64 %indvars.iv, 1
  %exitcond.not = icmp eq i64 %indvars.iv.next, 32768
  br i1 %exitcond.not, label %7, label %5, !llvm.loop !25

7:                                                ; preds = %5
  %8 = getelementptr inbounds nuw i8, ptr %3, i64 524320
  tail call void @av_freep(ptr noundef nonnull %8) #13
  %9 = getelementptr inbounds nuw i8, ptr %3, i64 24
  tail call void @av_frame_free(ptr noundef nonnull %9) #13
  ret void
}